target datalayout = "e-m:e-p270:32:32-p271:32:32-p272:64:64-i64:64-i128:128-f80:128-n8:16:32:64-S128"
target triple = "x86_64-pc-linux-gnu"

%struct.H5G_bt2_ud_common_t = type { ptr, ptr, ptr, i32, i64, ptr, ptr }
%struct.H5G_dense_bt2_corder_rec_t = type { [7 x i8], i64 }

@H5G_init_g = external global i8, align 1
@H5_libterm_g = external global i8, align 1

; Function Attrs: nounwind uwtable
define internal i32 @H5G__dense_btree2_corder_compare(ptr noundef %0, ptr noundef %1, ptr noundef %2) #0 {
  %4 = alloca ptr, align 8
  %5 = alloca ptr, align 8
  %6 = alloca ptr, align 8
  %7 = alloca ptr, align 8
  %8 = alloca ptr, align 8
  store ptr %0, ptr %4, align 8, !tbaa !3
  store ptr %1, ptr %5, align 8, !tbaa !3
  store ptr %2, ptr %6, align 8, !tbaa !25
  call void @llvm.lifetime.start.p0(i64 8, ptr %7) #7
  %9 = load ptr, ptr %4, align 8, !tbaa !3
  store ptr %9, ptr %7, align 8, !tbaa !27
  call void @llvm.lifetime.start.p0(i64 8, ptr %8) #7
  %10 = load ptr, ptr %5, align 8, !tbaa !3
  store ptr %10, ptr %8, align 8, !tbaa !49
  %11 = load i8, ptr @H5G_init_g, align 1, !tbaa !11, !range !13, !noundef !14
  %12 = trunc i8 %11 to i1
  br i1 %12, label %17, label %13

13:                                               ; preds = %3
  %14 = load i8, ptr @H5_libterm_g, align 1, !tbaa !11, !range !13, !noundef !14
  %15 = trunc i8 %14 to i1
  %16 = xor i1 %15, true
  br label %17

17:                                               ; preds = %13, %3
  %18 = phi i1 [ true, %3 ], [ %16, %13 ]
  %19 = xor i1 %18, true
  %20 = xor i1 %19, true
  %21 = zext i1 %20 to i32
  %22 = sext i32 %21 to i64
  %23 = call i64 @llvm.expect.i64(i64 %22, i64 1)
  %24 = icmp ne i64 %23, 0
  br i1 %24, label %25, label %49

25:                                               ; preds = %17
  %26 = load ptr, ptr %7, align 8, !tbaa !27
  %27 = getelementptr inbounds nuw %struct.H5G_bt2_ud_common_t, ptr %26, i32 0, i32 4
  %28 = load i64, ptr %27, align 8, !tbaa !54
  %29 = load ptr, ptr %8, align 8, !tbaa !49
  %30 = getelementptr inbounds nuw %struct.H5G_dense_bt2_corder_rec_t, ptr %29, i32 0, i32 1
  %31 = load i64, ptr %30, align 8, !tbaa !52
  %32 = icmp slt i64 %28, %31
  br i1 %32, label %33, label %35

33:                                               ; preds = %25
  %34 = load ptr, ptr %6, align 8, !tbaa !25
  store i32 -1, ptr %34, align 4, !tbaa !29
  br label %48

35:                                               ; preds = %25
  %36 = load ptr, ptr %7, align 8, !tbaa !27
  %37 = getelementptr inbounds nuw %struct.H5G_bt2_ud_common_t, ptr %36, i32 0, i32 4
  %38 = load i64, ptr %37, align 8, !tbaa !54
  %39 = load ptr, ptr %8, align 8, !tbaa !49
  %40 = getelementptr inbounds nuw %struct.H5G_dense_bt2_corder_rec_t, ptr %39, i32 0, i32 1
  %41 = load i64, ptr %40, align 8, !tbaa !52
  %42 = icmp sgt i64 %38, %41
  br i1 %42, label %43, label %45

43:                                               ; preds = %35
  %44 = load ptr, ptr %6, align 8, !tbaa !25
  store i32 1, ptr %44, align 4, !tbaa !29
  br label %47

45:                                               ; preds = %35
  %46 = load ptr, ptr %6, align 8, !tbaa !25
  store i32 0, ptr %46, align 4, !tbaa !29
  br label %47

47:                                               ; preds = %45, %43
  br label %48

48:                                               ; preds = %47, %33
  br label %49

49:                                               ; preds = %48, %17
  call void @llvm.lifetime.end.p0(i64 8, ptr %8) #7
  call void @llvm.lifetime.end.p0(i64 8, ptr %7) #7
  ret i32 0
}