; Function Attrs: mustprogress nofree norecurse nosync nounwind willreturn memory(read, argmem: readwrite, inaccessiblemem: none) uwtable
define internal noundef i32 @H5G__dense_btree2_corder_compare(ptr noundef readonly captures(none) %0, ptr noundef readonly captures(none) %1, ptr noundef writeonly captures(none) %2) #0 {
  %4 = load i8, ptr @H5G_init_g, align 1, !tbaa !3, !range !7, !noundef !8
  %5 = trunc nuw i8 %4 to i1
  %6 = load i8, ptr @H5_libterm_g, align 1, !range !7
  %7 = trunc nuw i8 %6 to i1
  %8 = xor i1 %7, true
  %9 = select i1 %5, i1 true, i1 %8
  br i1 %9, label %.sink.split, label %14, !prof !9

.sink.split:                                      ; preds = %3
  %10 = getelementptr inbounds nuw i8, ptr %0, i64 32
  %11 = load i64, ptr %10, align 8, !tbaa !43
  %12 = getelementptr inbounds nuw i8, ptr %1, i64 8
  %13 = load i64, ptr %12, align 8, !tbaa !41
  %.sink = tail call i32 @llvm.scmp.i32.i64(i64 %11, i64 %13)
  store i32 %.sink, ptr %2, align 4, !tbaa !22
  br label %14

14:                                               ; preds = %.sink.split, %3
  ret i32 0
}